cnumpy.core.multiarray
_reconstruct
p0
(cnumpy
ndarray
p1
(I0
tp2
S'b'
p3
tp4
Rp5
(I1
(I21
tp6
cnumpy
dtype
p7
(S'O8'
p8
I0
I1
tp9
Rp10
(I3
S'|'
p11
NNNI-1
I-1
I63
tp12
bI00
(lp13
S'gpa'
p14
aS'pct_classes_dropped'
p15
aS'classes_completed'
p16
aS'prejudice_score'
p17
aS'avg_hrs_extracurricular'
p18
aS'total_cost_gap'
p19
aS'total_parent_contribution'
p20
aS'avg_hrs_studying'
p21
aS'effort_score'
p22
aS'pct_apply_finaid'
p23
aS's_work_hrs_week'
p24
aS'total_gap_pct'
p25
aS'hsizelyr'
p26
aS'get_away_from_campus_score'
p27
aS's_household_income'
p28
aS'total_contribution'
p29
aS'total_college_cost'
p30
aS'f_work_hrs_week'
p31
aS'lonely_score'
p32
aS'ap_tests'
p33
aS'total_grants'
p34
atp35
b.